target datalayout = "e-m:e-p270:32:32-p271:32:32-p272:64:64-i64:64-i128:128-f80:128-n8:16:32:64-S128"
target triple = "x86_64-pc-linux-gnu"

%struct.Rnm_Man_t_ = type { ptr, ptr, ptr, i32, i32, i32, ptr, ptr, ptr, ptr, i32, i32, i32, i32, i32, i32, i64, i64, i64, i64 }
%struct.Vec_Int_t_ = type { i32, i32, ptr }

; Function Attrs: inlinehint nounwind uwtable
define internal i32 @Vec_IntCap(ptr noundef %0) #3 {
  %2 = alloca ptr, align 8
  store ptr %0, ptr %2, align 8, !tbaa !40
  %3 = load ptr, ptr %2, align 8, !tbaa !40
  %4 = getelementptr inbounds nuw %struct.Vec_Int_t_, ptr %3, i32 0, i32 0
  %5 = load i32, ptr %4, align 8, !tbaa !42
  ret i32 %5
}

; Function Attrs: nounwind uwtable
define double @Rnm_ManMemoryUsage(ptr noundef %0) #0 {
  %2 = alloca ptr, align 8
  store ptr %0, ptr %2, align 8, !tbaa !8
  %3 = load ptr, ptr %2, align 8, !tbaa !8
  %4 = getelementptr inbounds nuw %struct.Rnm_Man_t_, ptr %3, i32 0, i32 11
  %5 = load i32, ptr %4, align 4, !tbaa !21
  %6 = sext i32 %5 to i64
  %7 = mul i64 4, %6
  %8 = add i64 128, %7
  %9 = load ptr, ptr %2, align 8, !tbaa !8
  %10 = getelementptr inbounds nuw %struct.Rnm_Man_t_, ptr %9, i32 0, i32 6
  %11 = load ptr, ptr %10, align 8, !tbaa !18
  %12 = call i32 @Vec_IntCap(ptr noundef %11)
  %13 = sext i32 %12 to i64
  %14 = mul i64 4, %13
  %15 = add i64 %8, %14
  %16 = uitofp i64 %15 to double
  ret double %16
}