; Function Attrs: mustprogress nofree norecurse nosync nounwind willreturn memory(read, inaccessiblemem: none) uwtable
define double @Rnm_ManMemoryUsage(ptr noundef readonly captures(none) %0) local_unnamed_addr #8 {
  %2 = getelementptr inbounds nuw i8, ptr %0, i64 76
  %3 = load i32, ptr %2, align 4, !tbaa !41
  %4 = sext i32 %3 to i64
  %5 = getelementptr inbounds nuw i8, ptr %0, i64 40
  %6 = load ptr, ptr %5, align 8, !tbaa !20
  %.val = load i32, ptr %6, align 8, !tbaa !18
  %7 = sext i32 %.val to i64
  %8 = add nsw i64 %7, %4
  %9 = shl nsw i64 %8, 2
  %10 = add nsw i64 %9, 128
  %11 = uitofp i64 %10 to double
  ret double %11
}